; Function Attrs: mustprogress uwtable
define noundef range(i64 0, 18446744073709552) i64 @_ZNK7rocksdb19TransactionBaseImpl14GetElapsedTimeEv(ptr noundef nonnull readonly align 8 captures(none) dereferenceable(400) %0) unnamed_addr #4 align 2 {
  %2 = getelementptr inbounds nuw i8, ptr %0, i64 72
  %3 = load ptr, ptr %2, align 8, !tbaa !133
  %4 = tail call noundef ptr @_ZNK7rocksdb6DBImpl14GetSystemClockEv(ptr noundef nonnull align 64 dereferenceable(6868) %3)
  %5 = load ptr, ptr %4, align 8, !tbaa !27
  %6 = getelementptr inbounds nuw i8, ptr %5, i64 152
  %7 = load ptr, ptr %6, align 8
  %8 = tail call noundef i64 %7(ptr noundef nonnull align 8 dereferenceable(32) %4)
  %9 = getelementptr inbounds nuw i8, ptr %0, i64 128
  %10 = load i64, ptr %9, align 8, !tbaa !140
  %11 = sub i64 %8, %10
  %12 = udiv i64 %11, 1000
  ret i64 %12
}